target datalayout = "e-m:e-p270:32:32-p271:32:32-p272:64:64-i64:64-i128:128-f80:128-n8:16:32:64-S128"
target triple = "x86_64-pc-linux-gnu"

; Function Attrs: null_pointer_is_valid sspstrong uwtable
define internal zeroext i1 @matches_regex(ptr noundef %0, ptr noundef %1) #0 {
  %3 = alloca i1, align 1
  %4 = alloca ptr, align 8
  %5 = alloca ptr, align 8
  store ptr %0, ptr %4, align 8
  store ptr %1, ptr %5, align 8
  %6 = load ptr, ptr %5, align 8
  %7 = call i32 @g_utf8_validate(ptr noundef %6, i64 noundef -1, ptr noundef null)
  %8 = icmp ne i32 %7, 0
  br i1 %8, label %10, label %9

9:                                                ; preds = %2
  store i1 false, ptr %3, align 1
  br label %15

10:                                               ; preds = %2
  %11 = load ptr, ptr %4, align 8
  %12 = load ptr, ptr %5, align 8
  %13 = call i32 @g_regex_match_simple(ptr noundef %11, ptr noundef %12, i32 noundef 1, i32 noundef 0)
  %14 = icmp ne i32 %13, 0
  store i1 %14, ptr %3, align 1
  br label %15

15:                                               ; preds = %10, %9
  %16 = load i1, ptr %3, align 1
  ret i1 %16
}