; Function Attrs: null_pointer_is_valid sspstrong uwtable
define internal fastcc zeroext i1 @matches_regex(ptr noundef %0) unnamed_addr #0 {
  %2 = tail call i32 @g_utf8_validate(ptr noundef %0, i64 noundef -1, ptr noundef null)
  %.not = icmp eq i32 %2, 0
  br i1 %.not, label %6, label %3

3:                                                ; preds = %1
  %4 = tail call i32 @g_regex_match_simple(ptr noundef nonnull @.str.1, ptr noundef %0, i32 noundef 1, i32 noundef 0)
  %5 = icmp ne i32 %4, 0
  br label %6

6:                                                ; preds = %1, %3
  %.0 = phi i1 [ %5, %3 ], [ false, %1 ]
  ret i1 %.0
}